target datalayout = "e-m:e-p270:32:32-p271:32:32-p272:64:64-i64:64-i128:128-f80:128-n8:16:32:64-S128"
target triple = "x86_64-pc-linux-gnu"

; Function Attrs: inlinehint nounwind uwtable
define internal i32 @ZSTD_countLeadingZeros32(i32 noundef %0) #2 {
  %2 = alloca i32, align 4
  store i32 %0, ptr %2, align 4, !tbaa !10
  %3 = load i32, ptr %2, align 4, !tbaa !10
  %4 = call i32 @llvm.ctlz.i32(i32 %3, i1 true)
  ret i32 %4
}

; Function Attrs: nounwind uwtable
define internal i32 @FSE_minTableLog(i64 noundef %0, i32 noundef %1) #0 {
  %3 = alloca i64, align 8
  %4 = alloca i32, align 4
  %5 = alloca i32, align 4
  %6 = alloca i32, align 4
  %7 = alloca i32, align 4
  store i64 %0, ptr %3, align 8, !tbaa !13
  store i32 %1, ptr %4, align 4, !tbaa !10
  call void @llvm.lifetime.start.p0(i64 4, ptr %5) #6
  %8 = load i64, ptr %3, align 8, !tbaa !13
  %9 = trunc i64 %8 to i32
  %10 = call i32 @ZSTD_highbit32(i32 noundef %9)
  %11 = add i32 %10, 1
  store i32 %11, ptr %5, align 4, !tbaa !10
  call void @llvm.lifetime.start.p0(i64 4, ptr %6) #6
  %12 = load i32, ptr %4, align 4, !tbaa !10
  %13 = call i32 @ZSTD_highbit32(i32 noundef %12)
  %14 = add i32 %13, 2
  store i32 %14, ptr %6, align 4, !tbaa !10
  call void @llvm.lifetime.start.p0(i64 4, ptr %7) #6
  %15 = load i32, ptr %5, align 4, !tbaa !10
  %16 = load i32, ptr %6, align 4, !tbaa !10
  %17 = icmp ult i32 %15, %16
  br i1 %17, label %18, label %20

18:                                               ; preds = %2
  %19 = load i32, ptr %5, align 4, !tbaa !10
  br label %22

20:                                               ; preds = %2
  %21 = load i32, ptr %6, align 4, !tbaa !10
  br label %22

22:                                               ; preds = %20, %18
  %23 = phi i32 [ %19, %18 ], [ %21, %20 ]
  store i32 %23, ptr %7, align 4, !tbaa !10
  %24 = load i32, ptr %7, align 4, !tbaa !10
  call void @llvm.lifetime.end.p0(i64 4, ptr %7) #6
  call void @llvm.lifetime.end.p0(i64 4, ptr %6) #6
  call void @llvm.lifetime.end.p0(i64 4, ptr %5) #6
  ret i32 %24
}

; Function Attrs: inlinehint nounwind uwtable
define internal i32 @ZSTD_highbit32(i32 noundef %0) #2 {
  %2 = alloca i32, align 4
  store i32 %0, ptr %2, align 4, !tbaa !10
  %3 = load i32, ptr %2, align 4, !tbaa !10
  %4 = call i32 @ZSTD_countLeadingZeros32(i32 noundef %3)
  %5 = sub i32 31, %4
  ret i32 %5
}

; Function Attrs: nounwind uwtable
define i32 @FSE_optimalTableLog_internal(i32 noundef %0, i64 noundef %1, i32 noundef %2, i32 noundef %3) #0 {
  %5 = alloca i32, align 4
  %6 = alloca i64, align 8
  %7 = alloca i32, align 4
  %8 = alloca i32, align 4
  %9 = alloca i32, align 4
  %10 = alloca i32, align 4
  %11 = alloca i32, align 4
  store i32 %0, ptr %5, align 4, !tbaa !10
  store i64 %1, ptr %6, align 8, !tbaa !13
  store i32 %2, ptr %7, align 4, !tbaa !10
  store i32 %3, ptr %8, align 4, !tbaa !10
  call void @llvm.lifetime.start.p0(i64 4, ptr %9) #6
  %12 = load i64, ptr %6, align 8, !tbaa !13
  %13 = sub i64 %12, 1
  %14 = trunc i64 %13 to i32
  %15 = call i32 @ZSTD_highbit32(i32 noundef %14)
  %16 = load i32, ptr %8, align 4, !tbaa !10
  %17 = sub i32 %15, %16
  store i32 %17, ptr %9, align 4, !tbaa !10
  call void @llvm.lifetime.start.p0(i64 4, ptr %10) #6
  %18 = load i32, ptr %5, align 4, !tbaa !10
  store i32 %18, ptr %10, align 4, !tbaa !10
  call void @llvm.lifetime.start.p0(i64 4, ptr %11) #6
  %19 = load i64, ptr %6, align 8, !tbaa !13
  %20 = load i32, ptr %7, align 4, !tbaa !10
  %21 = call i32 @FSE_minTableLog(i64 noundef %19, i32 noundef %20)
  store i32 %21, ptr %11, align 4, !tbaa !10
  %22 = load i32, ptr %10, align 4, !tbaa !10
  %23 = icmp eq i32 %22, 0
  br i1 %23, label %24, label %25

24:                                               ; preds = %4
  store i32 11, ptr %10, align 4, !tbaa !10
  br label %25

25:                                               ; preds = %24, %4
  %26 = load i32, ptr %9, align 4, !tbaa !10
  %27 = load i32, ptr %10, align 4, !tbaa !10
  %28 = icmp ult i32 %26, %27
  br i1 %28, label %29, label %31

29:                                               ; preds = %25
  %30 = load i32, ptr %9, align 4, !tbaa !10
  store i32 %30, ptr %10, align 4, !tbaa !10
  br label %31

31:                                               ; preds = %29, %25
  %32 = load i32, ptr %11, align 4, !tbaa !10
  %33 = load i32, ptr %10, align 4, !tbaa !10
  %34 = icmp ugt i32 %32, %33
  br i1 %34, label %35, label %37

35:                                               ; preds = %31
  %36 = load i32, ptr %11, align 4, !tbaa !10
  store i32 %36, ptr %10, align 4, !tbaa !10
  br label %37

37:                                               ; preds = %35, %31
  %38 = load i32, ptr %10, align 4, !tbaa !10
  %39 = icmp ult i32 %38, 5
  br i1 %39, label %40, label %41

40:                                               ; preds = %37
  store i32 5, ptr %10, align 4, !tbaa !10
  br label %41

41:                                               ; preds = %40, %37
  %42 = load i32, ptr %10, align 4, !tbaa !10
  %43 = icmp ugt i32 %42, 12
  br i1 %43, label %44, label %45

44:                                               ; preds = %41
  store i32 12, ptr %10, align 4, !tbaa !10
  br label %45

45:                                               ; preds = %44, %41
  %46 = load i32, ptr %10, align 4, !tbaa !10
  call void @llvm.lifetime.end.p0(i64 4, ptr %11) #6
  call void @llvm.lifetime.end.p0(i64 4, ptr %10) #6
  call void @llvm.lifetime.end.p0(i64 4, ptr %9) #6
  ret i32 %46
}