; Function Attrs: mustprogress nofree norecurse nosync nounwind willreturn memory(none) uwtable
define range(i32 5, 13) i32 @FSE_optimalTableLog_internal(i32 noundef %0, i64 noundef %1, i32 noundef %2, i32 noundef %3) local_unnamed_addr #1 {
  %5 = trunc i64 %1 to i32
  %6 = add i32 %5, -1
  %7 = tail call range(i32 0, 32) i32 @llvm.ctlz.i32(i32 %6, i1 true)
  %8 = xor i32 %7, 31
  %9 = sub i32 %8, %3
  %10 = tail call range(i32 0, 32) i32 @llvm.ctlz.i32(i32 %5, i1 true)
  %11 = sub nuw nsw i32 32, %10
  %12 = tail call range(i32 0, 32) i32 @llvm.ctlz.i32(i32 %2, i1 true)
  %13 = sub nuw nsw i32 33, %12
  %14 = tail call range(i32 1, 33) i32 @llvm.umin.i32(i32 %11, i32 %13)
  %15 = icmp eq i32 %0, 0
  %spec.store.select = select i1 %15, i32 11, i32 %0
  %spec.select = tail call i32 @llvm.umin.i32(i32 %9, i32 %spec.store.select)
  %.1 = tail call i32 @llvm.umax.i32(i32 %14, i32 %spec.select)
  %spec.store.select1 = tail call i32 @llvm.umax.i32(i32 %.1, i32 5)
  %spec.store.select2 = tail call i32 @llvm.umin.i32(i32 %spec.store.select1, i32 12)
  ret i32 %spec.store.select2
}